; Function Attrs: mustprogress uwtable
define noundef nonnull align 8 dereferenceable(64) ptr @_ZNK6icu_7521TimeZoneNamesDelegate13getMetaZoneIDERKNS_13UnicodeStringEdRS1_(ptr nocapture noundef nonnull readonly align 8 dereferenceable(16) %this, ptr noundef nonnull align 8 dereferenceable(64) %tzID, double noundef %date, ptr noundef nonnull align 8 dereferenceable(64) %mzID) unnamed_addr #1 align 2 {
entry:
  %fTZnamesCacheEntry = getelementptr inbounds i8, ptr %this, i64 8
  %0 = load ptr, ptr %fTZnamesCacheEntry, align 8
  %1 = load ptr, ptr %0, align 8
  %vtable = load ptr, ptr %1, align 8
  %vfn = getelementptr inbounds i8, ptr %vtable, i64 56
  %2 = load ptr, ptr %vfn, align 8
  %call = tail call noundef nonnull align 8 dereferenceable(64) ptr %2(ptr noundef nonnull align 8 dereferenceable(8) %1, ptr noundef nonnull align 8 dereferenceable(64) %tzID, double noundef %date, ptr noundef nonnull align 8 dereferenceable(64) %mzID)
  ret ptr %call
}